target datalayout = "e-m:e-p270:32:32-p271:32:32-p272:64:64-i64:64-i128:128-f80:128-n8:16:32:64-S128"
target triple = "x86_64-pc-linux-gnu"

%union.TValue = type { i64 }
%struct.FuncState = type { ptr, ptr, ptr, ptr, ptr, i32, i32, i32, i32, i32, i32, i32, i32, ptr, i32, i32, i8, i8, i8, i8, [200 x i16], [60 x i16], [60 x i16] }
%struct.GCRef = type { i64 }
%struct.ExpDesc = type { %union.anon.2, i32, i32, i32 }
%union.anon.2 = type { %union.TValue }
%struct.anon.3 = type { i32, i32 }
%struct.anon.0 = type { i32, i32 }

@.str = private unnamed_addr constant [24 x i8] c"store to dead GC object\00", align 1

; Function Attrs: alwaysinline nounwind uwtable
define internal void @checklivetv(ptr noundef %0, ptr noundef %1, ptr noundef %2) #4 {
  %4 = alloca ptr, align 8
  %5 = alloca ptr, align 8
  %6 = alloca ptr, align 8
  store ptr %0, ptr %4, align 8, !tbaa !23
  store ptr %1, ptr %5, align 8, !tbaa !30
  store ptr %2, ptr %6, align 8, !tbaa !9
  ret void
}

; Function Attrs: alwaysinline nounwind uwtable
define internal void @setgcVraw(ptr noundef %0, ptr noundef %1, i32 noundef %2) #4 {
  %4 = alloca ptr, align 8
  %5 = alloca ptr, align 8
  %6 = alloca i32, align 4
  store ptr %0, ptr %4, align 8, !tbaa !30
  store ptr %1, ptr %5, align 8, !tbaa !103
  store i32 %2, ptr %6, align 4, !tbaa !79
  %7 = load ptr, ptr %5, align 8, !tbaa !103
  %8 = ptrtoint ptr %7 to i64
  %9 = load i32, ptr %6, align 4, !tbaa !79
  %10 = zext i32 %9 to i64
  %11 = shl i64 %10, 47
  %12 = or i64 %8, %11
  %13 = load ptr, ptr %4, align 8, !tbaa !30
  %14 = getelementptr inbounds nuw %struct.GCRef, ptr %13, i32 0, i32 0
  store i64 %12, ptr %14, align 8, !tbaa !32
  ret void
}

; Function Attrs: alwaysinline nounwind uwtable
define internal void @setgcV(ptr noundef %0, ptr noundef %1, ptr noundef %2, i32 noundef %3) #4 {
  %5 = alloca ptr, align 8
  %6 = alloca ptr, align 8
  %7 = alloca ptr, align 8
  %8 = alloca i32, align 4
  store ptr %0, ptr %5, align 8, !tbaa !23
  store ptr %1, ptr %6, align 8, !tbaa !30
  store ptr %2, ptr %7, align 8, !tbaa !103
  store i32 %3, ptr %8, align 4, !tbaa !79
  %9 = load ptr, ptr %6, align 8, !tbaa !30
  %10 = load ptr, ptr %7, align 8, !tbaa !103
  %11 = load i32, ptr %8, align 4, !tbaa !79
  call void @setgcVraw(ptr noundef %9, ptr noundef %10, i32 noundef %11)
  %12 = load ptr, ptr %5, align 8, !tbaa !23
  %13 = load ptr, ptr %6, align 8, !tbaa !30
  call void @checklivetv(ptr noundef %12, ptr noundef %13, ptr noundef @.str)
  ret void
}

; Function Attrs: nounwind uwtable
define internal i32 @const_gc(ptr noundef %0, ptr noundef %1, i32 noundef %2) #0 {
  %4 = alloca i32, align 4
  %5 = alloca ptr, align 8
  %6 = alloca ptr, align 8
  %7 = alloca i32, align 4
  %8 = alloca ptr, align 8
  %9 = alloca %union.TValue, align 8
  %10 = alloca ptr, align 8
  %11 = alloca i32, align 4
  store ptr %0, ptr %5, align 8, !tbaa !62
  store ptr %1, ptr %6, align 8, !tbaa !103
  store i32 %2, ptr %7, align 4, !tbaa !79
  call void @llvm.lifetime.start.p0(i64 8, ptr %8) #11
  %12 = load ptr, ptr %5, align 8, !tbaa !62
  %13 = getelementptr inbounds nuw %struct.FuncState, ptr %12, i32 0, i32 2
  %14 = load ptr, ptr %13, align 8, !tbaa !67
  store ptr %14, ptr %8, align 8, !tbaa !23
  call void @llvm.lifetime.start.p0(i64 8, ptr %9) #11
  call void @llvm.lifetime.start.p0(i64 8, ptr %10) #11
  %15 = load ptr, ptr %8, align 8, !tbaa !23
  %16 = load ptr, ptr %6, align 8, !tbaa !103
  %17 = load i32, ptr %7, align 4, !tbaa !79
  call void @setgcV(ptr noundef %15, ptr noundef %9, ptr noundef %16, i32 noundef %17)
  %18 = load ptr, ptr %8, align 8, !tbaa !23
  %19 = load ptr, ptr %5, align 8, !tbaa !62
  %20 = getelementptr inbounds nuw %struct.FuncState, ptr %19, i32 0, i32 0
  %21 = load ptr, ptr %20, align 8, !tbaa !26
  %22 = call ptr @lj_tab_set(ptr noundef %18, ptr noundef %21, ptr noundef %9)
  store ptr %22, ptr %10, align 8, !tbaa !30
  %23 = load ptr, ptr %10, align 8, !tbaa !30
  %24 = getelementptr inbounds nuw %struct.anon.0, ptr %23, i32 0, i32 1
  %25 = load i32, ptr %24, align 4, !tbaa !32
  %26 = icmp eq i32 %25, 0
  br i1 %26, label %27, label %31

27:                                               ; preds = %3
  %28 = load ptr, ptr %10, align 8, !tbaa !30
  %29 = getelementptr inbounds nuw %struct.anon.0, ptr %28, i32 0, i32 0
  %30 = load i32, ptr %29, align 8, !tbaa !32
  store i32 %30, ptr %4, align 4
  store i32 1, ptr %11, align 4
  br label %41

31:                                               ; preds = %3
  %32 = load ptr, ptr %5, align 8, !tbaa !62
  %33 = getelementptr inbounds nuw %struct.FuncState, ptr %32, i32 0, i32 11
  %34 = load i32, ptr %33, align 8, !tbaa !72
  %35 = zext i32 %34 to i64
  %36 = load ptr, ptr %10, align 8, !tbaa !30
  store i64 %35, ptr %36, align 8, !tbaa !32
  %37 = load ptr, ptr %5, align 8, !tbaa !62
  %38 = getelementptr inbounds nuw %struct.FuncState, ptr %37, i32 0, i32 11
  %39 = load i32, ptr %38, align 8, !tbaa !72
  %40 = add i32 %39, 1
  store i32 %40, ptr %38, align 8, !tbaa !72
  store i32 %39, ptr %4, align 4
  store i32 1, ptr %11, align 4
  br label %41

41:                                               ; preds = %31, %27
  call void @llvm.lifetime.end.p0(i64 8, ptr %10) #11
  call void @llvm.lifetime.end.p0(i64 8, ptr %9) #11
  call void @llvm.lifetime.end.p0(i64 8, ptr %8) #11
  %42 = load i32, ptr %4, align 4
  ret i32 %42
}

; Function Attrs: nounwind uwtable
define internal void @bcreg_free(ptr noundef %0, i32 noundef %1) #0 {
  %3 = alloca ptr, align 8
  %4 = alloca i32, align 4
  store ptr %0, ptr %3, align 8, !tbaa !62
  store i32 %1, ptr %4, align 4, !tbaa !79
  %5 = load i32, ptr %4, align 4, !tbaa !79
  %6 = load ptr, ptr %3, align 8, !tbaa !62
  %7 = getelementptr inbounds nuw %struct.FuncState, ptr %6, i32 0, i32 9
  %8 = load i32, ptr %7, align 8, !tbaa !74
  %9 = icmp uge i32 %5, %8
  br i1 %9, label %10, label %15

10:                                               ; preds = %2
  %11 = load ptr, ptr %3, align 8, !tbaa !62
  %12 = getelementptr inbounds nuw %struct.FuncState, ptr %11, i32 0, i32 8
  %13 = load i32, ptr %12, align 4, !tbaa !71
  %14 = add i32 %13, -1
  store i32 %14, ptr %12, align 4, !tbaa !71
  br label %15

15:                                               ; preds = %10, %2
  ret void
}

; Function Attrs: nounwind uwtable
define internal i32 @const_str(ptr noundef %0, ptr noundef %1) #0 {
  %3 = alloca ptr, align 8
  %4 = alloca ptr, align 8
  store ptr %0, ptr %3, align 8, !tbaa !62
  store ptr %1, ptr %4, align 8, !tbaa !127
  %5 = load ptr, ptr %3, align 8, !tbaa !62
  %6 = load ptr, ptr %4, align 8, !tbaa !127
  %7 = getelementptr inbounds nuw %struct.ExpDesc, ptr %6, i32 0, i32 0
  %8 = load ptr, ptr %7, align 8, !tbaa !32
  %9 = call i32 @const_gc(ptr noundef %5, ptr noundef %8, i32 noundef -5)
  ret i32 %9
}

; Function Attrs: nounwind uwtable
define internal void @expr_discharge(ptr noundef %0, ptr noundef %1) #0 {
  %3 = alloca ptr, align 8
  %4 = alloca ptr, align 8
  %5 = alloca i32, align 4
  %6 = alloca i32, align 4
  %7 = alloca i32, align 4
  store ptr %0, ptr %3, align 8, !tbaa !62
  store ptr %1, ptr %4, align 8, !tbaa !127
  call void @llvm.lifetime.start.p0(i64 4, ptr %5) #11
  %8 = load ptr, ptr %4, align 8, !tbaa !127
  %9 = getelementptr inbounds nuw %struct.ExpDesc, ptr %8, i32 0, i32 1
  %10 = load i32, ptr %9, align 8, !tbaa !117
  %11 = icmp eq i32 %10, 7
  br i1 %11, label %12, label %19

12:                                               ; preds = %2
  %13 = load ptr, ptr %4, align 8, !tbaa !127
  %14 = getelementptr inbounds nuw %struct.ExpDesc, ptr %13, i32 0, i32 0
  %15 = getelementptr inbounds nuw %struct.anon.3, ptr %14, i32 0, i32 0
  %16 = load i32, ptr %15, align 8, !tbaa !32
  %17 = shl i32 %16, 16
  %18 = or i32 45, %17
  store i32 %18, ptr %5, align 4, !tbaa !79
  br label %112

19:                                               ; preds = %2
  %20 = load ptr, ptr %4, align 8, !tbaa !127
  %21 = getelementptr inbounds nuw %struct.ExpDesc, ptr %20, i32 0, i32 1
  %22 = load i32, ptr %21, align 8, !tbaa !117
  %23 = icmp eq i32 %22, 8
  br i1 %23, label %24, label %30

24:                                               ; preds = %19
  %25 = load ptr, ptr %3, align 8, !tbaa !62
  %26 = load ptr, ptr %4, align 8, !tbaa !127
  %27 = call i32 @const_str(ptr noundef %25, ptr noundef %26)
  %28 = shl i32 %27, 16
  %29 = or i32 54, %28
  store i32 %29, ptr %5, align 4, !tbaa !79
  br label %111

30:                                               ; preds = %19
  %31 = load ptr, ptr %4, align 8, !tbaa !127
  %32 = getelementptr inbounds nuw %struct.ExpDesc, ptr %31, i32 0, i32 1
  %33 = load i32, ptr %32, align 8, !tbaa !117
  %34 = icmp eq i32 %33, 9
  br i1 %34, label %35, label %86

35:                                               ; preds = %30
  call void @llvm.lifetime.start.p0(i64 4, ptr %6) #11
  %36 = load ptr, ptr %4, align 8, !tbaa !127
  %37 = getelementptr inbounds nuw %struct.ExpDesc, ptr %36, i32 0, i32 0
  %38 = getelementptr inbounds nuw %struct.anon.3, ptr %37, i32 0, i32 1
  %39 = load i32, ptr %38, align 4, !tbaa !32
  store i32 %39, ptr %6, align 4, !tbaa !79
  %40 = load i32, ptr %6, align 4, !tbaa !79
  %41 = icmp slt i32 %40, 0
  br i1 %41, label %42, label %53

42:                                               ; preds = %35
  %43 = load ptr, ptr %4, align 8, !tbaa !127
  %44 = getelementptr inbounds nuw %struct.ExpDesc, ptr %43, i32 0, i32 0
  %45 = getelementptr inbounds nuw %struct.anon.3, ptr %44, i32 0, i32 0
  %46 = load i32, ptr %45, align 8, !tbaa !32
  %47 = shl i32 %46, 24
  %48 = or i32 57, %47
  %49 = load i32, ptr %6, align 4, !tbaa !79
  %50 = xor i32 %49, -1
  %51 = shl i32 %50, 16
  %52 = or i32 %48, %51
  store i32 %52, ptr %5, align 4, !tbaa !79
  br label %80

53:                                               ; preds = %35
  %54 = load i32, ptr %6, align 4, !tbaa !79
  %55 = icmp ugt i32 %54, 255
  br i1 %55, label %56, label %67

56:                                               ; preds = %53
  %57 = load ptr, ptr %4, align 8, !tbaa !127
  %58 = getelementptr inbounds nuw %struct.ExpDesc, ptr %57, i32 0, i32 0
  %59 = getelementptr inbounds nuw %struct.anon.3, ptr %58, i32 0, i32 0
  %60 = load i32, ptr %59, align 8, !tbaa !32
  %61 = shl i32 %60, 24
  %62 = or i32 58, %61
  %63 = load i32, ptr %6, align 4, !tbaa !79
  %64 = sub i32 %63, 256
  %65 = shl i32 %64, 16
  %66 = or i32 %62, %65
  store i32 %66, ptr %5, align 4, !tbaa !79
  br label %79

67:                                               ; preds = %53
  %68 = load ptr, ptr %3, align 8, !tbaa !62
  %69 = load i32, ptr %6, align 4, !tbaa !79
  call void @bcreg_free(ptr noundef %68, i32 noundef %69)
  %70 = load ptr, ptr %4, align 8, !tbaa !127
  %71 = getelementptr inbounds nuw %struct.ExpDesc, ptr %70, i32 0, i32 0
  %72 = getelementptr inbounds nuw %struct.anon.3, ptr %71, i32 0, i32 0
  %73 = load i32, ptr %72, align 8, !tbaa !32
  %74 = shl i32 %73, 24
  %75 = or i32 56, %74
  %76 = load i32, ptr %6, align 4, !tbaa !79
  %77 = shl i32 %76, 16
  %78 = or i32 %75, %77
  store i32 %78, ptr %5, align 4, !tbaa !79
  br label %79

79:                                               ; preds = %67, %56
  br label %80

80:                                               ; preds = %79, %42
  %81 = load ptr, ptr %3, align 8, !tbaa !62
  %82 = load ptr, ptr %4, align 8, !tbaa !127
  %83 = getelementptr inbounds nuw %struct.ExpDesc, ptr %82, i32 0, i32 0
  %84 = getelementptr inbounds nuw %struct.anon.3, ptr %83, i32 0, i32 0
  %85 = load i32, ptr %84, align 8, !tbaa !32
  call void @bcreg_free(ptr noundef %81, i32 noundef %85)
  call void @llvm.lifetime.end.p0(i64 4, ptr %6) #11
  br label %110

86:                                               ; preds = %30
  %87 = load ptr, ptr %4, align 8, !tbaa !127
  %88 = getelementptr inbounds nuw %struct.ExpDesc, ptr %87, i32 0, i32 1
  %89 = load i32, ptr %88, align 8, !tbaa !117
  %90 = icmp eq i32 %89, 13
  br i1 %90, label %91, label %101

91:                                               ; preds = %86
  %92 = load ptr, ptr %4, align 8, !tbaa !127
  %93 = getelementptr inbounds nuw %struct.ExpDesc, ptr %92, i32 0, i32 0
  %94 = getelementptr inbounds nuw %struct.anon.3, ptr %93, i32 0, i32 1
  %95 = load i32, ptr %94, align 4, !tbaa !32
  %96 = load ptr, ptr %4, align 8, !tbaa !127
  %97 = getelementptr inbounds nuw %struct.ExpDesc, ptr %96, i32 0, i32 0
  %98 = getelementptr inbounds nuw %struct.anon.3, ptr %97, i32 0, i32 0
  store i32 %95, ptr %98, align 8, !tbaa !32
  %99 = load ptr, ptr %4, align 8, !tbaa !127
  %100 = getelementptr inbounds nuw %struct.ExpDesc, ptr %99, i32 0, i32 1
  store i32 12, ptr %100, align 8, !tbaa !117
  store i32 1, ptr %7, align 4
  br label %121

101:                                              ; preds = %86
  %102 = load ptr, ptr %4, align 8, !tbaa !127
  %103 = getelementptr inbounds nuw %struct.ExpDesc, ptr %102, i32 0, i32 1
  %104 = load i32, ptr %103, align 8, !tbaa !117
  %105 = icmp eq i32 %104, 6
  br i1 %105, label %106, label %109

106:                                              ; preds = %101
  %107 = load ptr, ptr %4, align 8, !tbaa !127
  %108 = getelementptr inbounds nuw %struct.ExpDesc, ptr %107, i32 0, i32 1
  store i32 12, ptr %108, align 8, !tbaa !117
  store i32 1, ptr %7, align 4
  br label %121

109:                                              ; preds = %101
  store i32 1, ptr %7, align 4
  br label %121

110:                                              ; preds = %80
  br label %111

111:                                              ; preds = %110, %24
  br label %112

112:                                              ; preds = %111, %12
  %113 = load ptr, ptr %3, align 8, !tbaa !62
  %114 = load i32, ptr %5, align 4, !tbaa !79
  %115 = call i32 @bcemit_INS(ptr noundef %113, i32 noundef %114)
  %116 = load ptr, ptr %4, align 8, !tbaa !127
  %117 = getelementptr inbounds nuw %struct.ExpDesc, ptr %116, i32 0, i32 0
  %118 = getelementptr inbounds nuw %struct.anon.3, ptr %117, i32 0, i32 0
  store i32 %115, ptr %118, align 8, !tbaa !32
  %119 = load ptr, ptr %4, align 8, !tbaa !127
  %120 = getelementptr inbounds nuw %struct.ExpDesc, ptr %119, i32 0, i32 1
  store i32 11, ptr %120, align 8, !tbaa !117
  store i32 0, ptr %7, align 4
  br label %121

121:                                              ; preds = %112, %109, %106, %91
  call void @llvm.lifetime.end.p0(i64 4, ptr %5) #11
  %122 = load i32, ptr %7, align 4
  switch i32 %122, label %124 [
    i32 0, label %123
    i32 1, label %123
  ]

123:                                              ; preds = %121, %121
  ret void

124:                                              ; preds = %121
  unreachable
}