; Function Attrs: nounwind uwtable
define internal fastcc void @expr_discharge(ptr noundef captures(none) %0, ptr noundef nonnull captures(none) %1) unnamed_addr #0 {
  %3 = alloca %union.TValue, align 8
  %4 = getelementptr inbounds nuw i8, ptr %1, i64 8
  %5 = load i32, ptr %4, align 8, !tbaa !79
  switch i32 %5, label %73 [
    i32 7, label %6
    i32 8, label %10
    i32 9, label %30
    i32 13, label %69
    i32 6, label %.sink.split
  ]

6:                                                ; preds = %2
  %7 = load i32, ptr %1, align 8, !tbaa !25
  %8 = shl i32 %7, 16
  %9 = or disjoint i32 %8, 45
  br label %bcreg_free.exit32

10:                                               ; preds = %2
  %.val = load ptr, ptr %1, align 8, !tbaa !25
  %11 = getelementptr inbounds nuw i8, ptr %0, i64 16
  %12 = load ptr, ptr %11, align 8, !tbaa !50
  call void @llvm.lifetime.start.p0(i64 8, ptr nonnull %3) #11
  %13 = ptrtoint ptr %.val to i64
  %14 = or i64 %13, -703687441776640
  store i64 %14, ptr %3, align 8, !tbaa !25
  %15 = load ptr, ptr %0, align 8, !tbaa !20
  %16 = call ptr @lj_tab_set(ptr noundef %12, ptr noundef %15, ptr noundef nonnull %3) #11
  %17 = getelementptr inbounds nuw i8, ptr %16, i64 4
  %18 = load i32, ptr %17, align 4, !tbaa !25
  %19 = icmp eq i32 %18, 0
  br i1 %19, label %20, label %22

20:                                               ; preds = %10
  %21 = load i32, ptr %16, align 8, !tbaa !25
  br label %const_str.exit

22:                                               ; preds = %10
  %23 = getelementptr inbounds nuw i8, ptr %0, i64 64
  %24 = load i32, ptr %23, align 8, !tbaa !107
  %25 = zext i32 %24 to i64
  store i64 %25, ptr %16, align 8, !tbaa !25
  %26 = load i32, ptr %23, align 8, !tbaa !107
  %27 = add i32 %26, 1
  store i32 %27, ptr %23, align 8, !tbaa !107
  br label %const_str.exit

const_str.exit:                                   ; preds = %20, %22
  %.0.i.i = phi i32 [ %21, %20 ], [ %26, %22 ]
  call void @llvm.lifetime.end.p0(i64 8, ptr nonnull %3) #11
  %28 = shl i32 %.0.i.i, 16
  %29 = or disjoint i32 %28, 54
  br label %bcreg_free.exit32

30:                                               ; preds = %2
  %31 = getelementptr inbounds nuw i8, ptr %1, i64 4
  %32 = load i32, ptr %31, align 4, !tbaa !25
  %33 = icmp slt i32 %32, 0
  br i1 %33, label %34, label %41

34:                                               ; preds = %30
  %35 = load i32, ptr %1, align 8, !tbaa !25
  %36 = shl i32 %35, 24
  %37 = xor i32 %32, -1
  %38 = shl i32 %37, 16
  %39 = or i32 %38, %36
  %40 = or disjoint i32 %39, 57
  br label %61

41:                                               ; preds = %30
  %42 = icmp samesign ugt i32 %32, 255
  br i1 %42, label %43, label %49

43:                                               ; preds = %41
  %44 = load i32, ptr %1, align 8, !tbaa !25
  %45 = shl i32 %44, 24
  %46 = shl i32 %32, 16
  %47 = add i32 %46, -16777158
  %48 = or i32 %47, %45
  br label %61

49:                                               ; preds = %41
  %50 = getelementptr inbounds nuw i8, ptr %0, i64 56
  %51 = load i32, ptr %50, align 8, !tbaa !59
  %.not.i = icmp ult i32 %32, %51
  br i1 %.not.i, label %bcreg_free.exit, label %52

52:                                               ; preds = %49
  %53 = getelementptr inbounds nuw i8, ptr %0, i64 52
  %54 = load i32, ptr %53, align 4, !tbaa !83
  %55 = add i32 %54, -1
  store i32 %55, ptr %53, align 4, !tbaa !83
  br label %bcreg_free.exit

bcreg_free.exit:                                  ; preds = %49, %52
  %56 = load i32, ptr %1, align 8, !tbaa !25
  %57 = shl i32 %56, 24
  %58 = shl nuw nsw i32 %32, 16
  %59 = or disjoint i32 %58, %57
  %60 = or disjoint i32 %59, 56
  br label %61

61:                                               ; preds = %43, %bcreg_free.exit, %34
  %62 = phi i32 [ %35, %34 ], [ %44, %43 ], [ %56, %bcreg_free.exit ]
  %.1 = phi i32 [ %40, %34 ], [ %48, %43 ], [ %60, %bcreg_free.exit ]
  %63 = getelementptr inbounds nuw i8, ptr %0, i64 56
  %64 = load i32, ptr %63, align 8, !tbaa !59
  %.not.i31 = icmp ult i32 %62, %64
  br i1 %.not.i31, label %bcreg_free.exit32, label %65

65:                                               ; preds = %61
  %66 = getelementptr inbounds nuw i8, ptr %0, i64 52
  %67 = load i32, ptr %66, align 4, !tbaa !83
  %68 = add i32 %67, -1
  store i32 %68, ptr %66, align 4, !tbaa !83
  br label %bcreg_free.exit32

69:                                               ; preds = %2
  %70 = getelementptr inbounds nuw i8, ptr %1, i64 4
  %71 = load i32, ptr %70, align 4, !tbaa !25
  br label %.sink.split.sink.split

bcreg_free.exit32:                                ; preds = %65, %61, %const_str.exit, %6
  %.0 = phi i32 [ %9, %6 ], [ %29, %const_str.exit ], [ %.1, %61 ], [ %.1, %65 ]
  %72 = call fastcc i32 @bcemit_INS(ptr noundef %0, i32 noundef %.0)
  br label %.sink.split.sink.split

.sink.split.sink.split:                           ; preds = %bcreg_free.exit32, %69
  %.sink33 = phi i32 [ %71, %69 ], [ %72, %bcreg_free.exit32 ]
  %.sink.ph = phi i32 [ 12, %69 ], [ 11, %bcreg_free.exit32 ]
  store i32 %.sink33, ptr %1, align 8, !tbaa !25
  br label %.sink.split

.sink.split:                                      ; preds = %.sink.split.sink.split, %2
  %.sink = phi i32 [ 12, %2 ], [ %.sink.ph, %.sink.split.sink.split ]
  store i32 %.sink, ptr %4, align 8, !tbaa !79
  br label %73

73:                                               ; preds = %.sink.split, %2
  ret void
}